; Function Attrs: mustprogress nounwind uwtable
define void @DeleteLSTMData_75(ptr noundef %data) local_unnamed_addr #0 {
entry:
  %isnull = icmp eq ptr %data, null
  br i1 %isnull, label %delete.end, label %delete.notnull

delete.notnull:                                   ; preds = %entry
  tail call void @_ZN6icu_758LSTMDataD1Ev(ptr noundef nonnull align 8 dereferenceable(248) %data) #20
  tail call void @_ZN6icu_757UMemorydlEPv(ptr noundef nonnull %data) #20
  br label %delete.end

delete.end:                                       ; preds = %delete.notnull, %entry
  ret void
}